target datalayout = "e-m:e-p270:32:32-p271:32:32-p272:64:64-i64:64-i128:128-f80:128-n8:16:32:64-S128"
target triple = "x86_64-pc-linux-gnu"

%struct._packet_info = type { ptr, ptr, i32, i32, %struct.nstime_t, %struct.nstime_t, %struct.nstime_t, i8, ptr, ptr, ptr, ptr, %struct._address, %struct._address, %struct._address, %struct._address, %struct._address, %struct._address, i32, ptr, i8, [3 x i8], %struct.anon, i32, i32, i32, i32, ptr, i8, ptr, ptr, i16, i16, i32, i32, i16, i32, i32, ptr, ptr, ptr, i8, i8, i16, i16, i16, i32, i16, i16, ptr, ptr, ptr, ptr, ptr, i32, i32 }
%struct.nstime_t = type { i64, i32 }
%struct._address = type { i32, i32, ptr, ptr }
%struct.anon = type { i8, [3 x i8] }
%struct._proto_node = type { ptr, ptr, ptr, ptr, ptr, ptr, ptr }
%struct.field_info = type { ptr, i32, i32, i32, i32, i32, i32, ptr, ptr, ptr, i32, i32 }

@hf_tfp_uid = internal global i32 0, align 4
@hf_tfp_uid_numeric = internal global i32 0, align 4
@hf_tfp_len = internal global i32 0, align 4
@hf_tfp_fid = internal global i32 0, align 4
@hf_tfp_seq = internal global i32 0, align 4
@hf_tfp_r = internal global i32 0, align 4
@hf_tfp_a = internal global i32 0, align 4
@hf_tfp_oo = internal global i32 0, align 4
@hf_tfp_e = internal global i32 0, align 4
@hf_tfp_future_use = internal global i32 0, align 4
@hf_tfp_payload = internal global i32 0, align 4
@ett_tfp = internal global i32 0, align 4
@proto_tfp = internal global i32 0, align 4
@.str.30 = private unnamed_addr constant [35 x i8] c"UID: %s, Len: %d, FID: %d, Seq: %d\00", align 1
@.str.31 = private unnamed_addr constant [57 x i8] c"Tinkerforge Protocol, UID: %s, Len: %d, FID: %d, Seq: %d\00", align 1
@.str.32 = private unnamed_addr constant [3 x i8] c"%s\00", align 1
@BASE58_ALPHABET = internal constant [59 x i8] c"123456789abcdefghijkmnopqrstuvwxyzABCDEFGHJKLMNPQRSTUVWXYZ\00", align 16

; Function Attrs: inlinehint nounwind null_pointer_is_valid sspstrong uwtable
define internal void @proto_item_set_generated(ptr noundef %0) #4 {
  %2 = alloca ptr, align 8
  store ptr %0, ptr %2, align 8
  %3 = load ptr, ptr %2, align 8
  %4 = icmp ne ptr %3, null
  br i1 %4, label %5, label %24

5:                                                ; preds = %1
  br label %6

6:                                                ; preds = %5
  %7 = load ptr, ptr %2, align 8
  %8 = getelementptr inbounds nuw %struct._proto_node, ptr %7, i32 0, i32 5
  %9 = load ptr, ptr %8, align 8
  %10 = icmp ne ptr %9, null
  br i1 %10, label %11, label %22

11:                                               ; preds = %6
  %12 = load ptr, ptr %2, align 8
  %13 = getelementptr inbounds nuw %struct._proto_node, ptr %12, i32 0, i32 5
  %14 = load ptr, ptr %13, align 8
  %15 = getelementptr inbounds nuw %struct.field_info, ptr %14, i32 0, i32 6
  %16 = load i32, ptr %15, align 4
  %17 = or i32 %16, 2
  %18 = load ptr, ptr %2, align 8
  %19 = getelementptr inbounds nuw %struct._proto_node, ptr %18, i32 0, i32 5
  %20 = load ptr, ptr %19, align 8
  %21 = getelementptr inbounds nuw %struct.field_info, ptr %20, i32 0, i32 6
  store i32 %17, ptr %21, align 4
  br label %22

22:                                               ; preds = %11, %6
  br label %23

23:                                               ; preds = %22
  br label %24

24:                                               ; preds = %23, %1
  ret void
}

; Function Attrs: nounwind null_pointer_is_valid sspstrong uwtable
define internal void @base58_encode(i32 noundef %0, ptr noundef %1) #3 {
  %3 = alloca i32, align 4
  %4 = alloca ptr, align 8
  %5 = alloca i32, align 4
  %6 = alloca i32, align 4
  %7 = alloca i32, align 4
  %8 = alloca [13 x i8], align 1
  store i32 %0, ptr %3, align 4
  store ptr %1, ptr %4, align 8
  call void @llvm.lifetime.start.p0(i64 4, ptr %5) #6
  call void @llvm.lifetime.start.p0(i64 4, ptr %6) #6
  store i32 0, ptr %6, align 4
  call void @llvm.lifetime.start.p0(i64 4, ptr %7) #6
  call void @llvm.lifetime.start.p0(i64 13, ptr %8) #6
  call void @llvm.memset.p0.i64(ptr align 1 %8, i8 0, i64 13, i1 false)
  br label %9

9:                                                ; preds = %12, %2
  %10 = load i32, ptr %3, align 4
  %11 = icmp uge i32 %10, 58
  br i1 %11, label %12, label %26

12:                                               ; preds = %9
  %13 = load i32, ptr %3, align 4
  %14 = urem i32 %13, 58
  store i32 %14, ptr %5, align 4
  %15 = load i32, ptr %5, align 4
  %16 = zext i32 %15 to i64
  %17 = getelementptr [59 x i8], ptr @BASE58_ALPHABET, i64 0, i64 %16
  %18 = load i8, ptr %17, align 1
  %19 = load i32, ptr %6, align 4
  %20 = sext i32 %19 to i64
  %21 = getelementptr [13 x i8], ptr %8, i64 0, i64 %20
  store i8 %18, ptr %21, align 1
  %22 = load i32, ptr %3, align 4
  %23 = udiv i32 %22, 58
  store i32 %23, ptr %3, align 4
  %24 = load i32, ptr %6, align 4
  %25 = add i32 %24, 1
  store i32 %25, ptr %6, align 4
  br label %9, !llvm.loop !6

26:                                               ; preds = %9
  %27 = load i32, ptr %3, align 4
  %28 = zext i32 %27 to i64
  %29 = getelementptr [59 x i8], ptr @BASE58_ALPHABET, i64 0, i64 %28
  %30 = load i8, ptr %29, align 1
  %31 = load i32, ptr %6, align 4
  %32 = sext i32 %31 to i64
  %33 = getelementptr [13 x i8], ptr %8, i64 0, i64 %32
  store i8 %30, ptr %33, align 1
  store i32 0, ptr %7, align 4
  br label %34

34:                                               ; preds = %49, %26
  %35 = load i32, ptr %7, align 4
  %36 = load i32, ptr %6, align 4
  %37 = icmp sle i32 %35, %36
  br i1 %37, label %38, label %52

38:                                               ; preds = %34
  %39 = load i32, ptr %6, align 4
  %40 = load i32, ptr %7, align 4
  %41 = sub i32 %39, %40
  %42 = sext i32 %41 to i64
  %43 = getelementptr [13 x i8], ptr %8, i64 0, i64 %42
  %44 = load i8, ptr %43, align 1
  %45 = load ptr, ptr %4, align 8
  %46 = load i32, ptr %7, align 4
  %47 = sext i32 %46 to i64
  %48 = getelementptr i8, ptr %45, i64 %47
  store i8 %44, ptr %48, align 1
  br label %49

49:                                               ; preds = %38
  %50 = load i32, ptr %7, align 4
  %51 = add i32 %50, 1
  store i32 %51, ptr %7, align 4
  br label %34, !llvm.loop !8

52:                                               ; preds = %34
  br label %53

53:                                               ; preds = %61, %52
  %54 = load i32, ptr %7, align 4
  %55 = icmp slt i32 %54, 13
  br i1 %55, label %56, label %64

56:                                               ; preds = %53
  %57 = load ptr, ptr %4, align 8
  %58 = load i32, ptr %7, align 4
  %59 = sext i32 %58 to i64
  %60 = getelementptr i8, ptr %57, i64 %59
  store i8 0, ptr %60, align 1
  br label %61

61:                                               ; preds = %56
  %62 = load i32, ptr %7, align 4
  %63 = add i32 %62, 1
  store i32 %63, ptr %7, align 4
  br label %53, !llvm.loop !9

64:                                               ; preds = %53
  call void @llvm.lifetime.end.p0(i64 13, ptr %8) #6
  call void @llvm.lifetime.end.p0(i64 4, ptr %7) #6
  call void @llvm.lifetime.end.p0(i64 4, ptr %6) #6
  call void @llvm.lifetime.end.p0(i64 4, ptr %5) #6
  ret void
}

; Function Attrs: null_pointer_is_valid sspstrong uwtable
define internal void @dissect_tfp_common(ptr noundef %0, ptr noundef %1, ptr noundef %2) #0 {
  %4 = alloca ptr, align 8
  %5 = alloca ptr, align 8
  %6 = alloca ptr, align 8
  %7 = alloca i32, align 4
  %8 = alloca i32, align 4
  %9 = alloca i8, align 1
  %10 = alloca i8, align 1
  %11 = alloca i8, align 1
  %12 = alloca [13 x i8], align 1
  %13 = alloca ptr, align 8
  %14 = alloca ptr, align 8
  store ptr %0, ptr %4, align 8
  store ptr %1, ptr %5, align 8
  store ptr %2, ptr %6, align 8
  call void @llvm.lifetime.start.p0(i64 4, ptr %7) #6
  store i32 0, ptr %7, align 4
  call void @llvm.lifetime.start.p0(i64 4, ptr %8) #6
  store i32 48, ptr %8, align 4
  call void @llvm.lifetime.start.p0(i64 1, ptr %9) #6
  call void @llvm.lifetime.start.p0(i64 1, ptr %10) #6
  call void @llvm.lifetime.start.p0(i64 1, ptr %11) #6
  call void @llvm.lifetime.start.p0(i64 13, ptr %12) #6
  %15 = load ptr, ptr %4, align 8
  %16 = call i32 @tvb_get_letohl(ptr noundef %15, i32 noundef 0)
  %17 = getelementptr [13 x i8], ptr %12, i64 0, i64 0
  call void @base58_encode(i32 noundef %16, ptr noundef %17)
  %18 = load ptr, ptr %4, align 8
  %19 = call zeroext i8 @tvb_get_uint8(ptr noundef %18, i32 noundef 4)
  store i8 %19, ptr %9, align 1
  %20 = load ptr, ptr %4, align 8
  %21 = call zeroext i8 @tvb_get_uint8(ptr noundef %20, i32 noundef 5)
  store i8 %21, ptr %10, align 1
  %22 = load ptr, ptr %4, align 8
  %23 = load i32, ptr %8, align 4
  %24 = call zeroext i8 @tvb_get_bits8(ptr noundef %22, i32 noundef %23, i32 noundef 4)
  store i8 %24, ptr %11, align 1
  %25 = load ptr, ptr %5, align 8
  %26 = getelementptr inbounds nuw %struct._packet_info, ptr %25, i32 0, i32 1
  %27 = load ptr, ptr %26, align 8
  %28 = getelementptr [13 x i8], ptr %12, i64 0, i64 0
  %29 = load i8, ptr %9, align 1
  %30 = zext i8 %29 to i32
  %31 = load i8, ptr %10, align 1
  %32 = zext i8 %31 to i32
  %33 = load i8, ptr %11, align 1
  %34 = zext i8 %33 to i32
  call void (ptr, i32, ptr, ...) @col_add_fstr(ptr noundef %27, i32 noundef 25, ptr noundef @.str.30, ptr noundef %28, i32 noundef %30, i32 noundef %32, i32 noundef %34)
  %35 = load ptr, ptr %6, align 8
  %36 = icmp ne ptr %35, null
  br i1 %36, label %37, label %133

37:                                               ; preds = %3
  call void @llvm.lifetime.start.p0(i64 8, ptr %13) #6
  call void @llvm.lifetime.start.p0(i64 8, ptr %14) #6
  %38 = load ptr, ptr %6, align 8
  %39 = load i32, ptr @proto_tfp, align 4
  %40 = load ptr, ptr %4, align 8
  %41 = getelementptr [13 x i8], ptr %12, i64 0, i64 0
  %42 = load i8, ptr %9, align 1
  %43 = zext i8 %42 to i32
  %44 = load i8, ptr %10, align 1
  %45 = zext i8 %44 to i32
  %46 = load i8, ptr %11, align 1
  %47 = zext i8 %46 to i32
  %48 = call ptr (ptr, i32, ptr, i32, i32, ptr, ...) @proto_tree_add_protocol_format(ptr noundef %38, i32 noundef %39, ptr noundef %40, i32 noundef 0, i32 noundef -1, ptr noundef @.str.31, ptr noundef %41, i32 noundef %43, i32 noundef %45, i32 noundef %47)
  store ptr %48, ptr %14, align 8
  %49 = load ptr, ptr %14, align 8
  %50 = load i32, ptr @ett_tfp, align 4
  %51 = call ptr @proto_item_add_subtree(ptr noundef %49, i32 noundef %50)
  store ptr %51, ptr %13, align 8
  %52 = load ptr, ptr %13, align 8
  %53 = load i32, ptr @hf_tfp_uid, align 4
  %54 = load ptr, ptr %4, align 8
  %55 = load i32, ptr %7, align 4
  %56 = getelementptr [13 x i8], ptr %12, i64 0, i64 0
  %57 = getelementptr [13 x i8], ptr %12, i64 0, i64 0
  %58 = call ptr (ptr, i32, ptr, i32, i32, ptr, ptr, ...) @proto_tree_add_string_format_value(ptr noundef %52, i32 noundef %53, ptr noundef %54, i32 noundef %55, i32 noundef 4, ptr noundef %56, ptr noundef @.str.32, ptr noundef %57)
  store ptr %58, ptr %14, align 8
  %59 = load ptr, ptr %14, align 8
  call void @proto_item_set_generated(ptr noundef %59)
  %60 = load ptr, ptr %13, align 8
  %61 = load i32, ptr @hf_tfp_uid_numeric, align 4
  %62 = load ptr, ptr %4, align 8
  %63 = load i32, ptr %7, align 4
  %64 = call ptr @proto_tree_add_item(ptr noundef %60, i32 noundef %61, ptr noundef %62, i32 noundef %63, i32 noundef 4, i32 noundef -2147483648)
  %65 = load i32, ptr %7, align 4
  %66 = add i32 %65, 4
  store i32 %66, ptr %7, align 4
  %67 = load ptr, ptr %13, align 8
  %68 = load i32, ptr @hf_tfp_len, align 4
  %69 = load ptr, ptr %4, align 8
  %70 = load i32, ptr %7, align 4
  %71 = call ptr @proto_tree_add_item(ptr noundef %67, i32 noundef %68, ptr noundef %69, i32 noundef %70, i32 noundef 1, i32 noundef -2147483648)
  %72 = load i32, ptr %7, align 4
  %73 = add i32 %72, 1
  store i32 %73, ptr %7, align 4
  %74 = load ptr, ptr %13, align 8
  %75 = load i32, ptr @hf_tfp_fid, align 4
  %76 = load ptr, ptr %4, align 8
  %77 = load i32, ptr %7, align 4
  %78 = call ptr @proto_tree_add_item(ptr noundef %74, i32 noundef %75, ptr noundef %76, i32 noundef %77, i32 noundef 1, i32 noundef -2147483648)
  %79 = load i32, ptr %7, align 4
  %80 = add i32 %79, 1
  store i32 %80, ptr %7, align 4
  %81 = load ptr, ptr %13, align 8
  %82 = load i32, ptr @hf_tfp_seq, align 4
  %83 = load ptr, ptr %4, align 8
  %84 = load i32, ptr %8, align 4
  %85 = call ptr @proto_tree_add_bits_item(ptr noundef %81, i32 noundef %82, ptr noundef %83, i32 noundef %84, i32 noundef 4, i32 noundef -2147483648)
  %86 = load i32, ptr %8, align 4
  %87 = add i32 %86, 4
  store i32 %87, ptr %8, align 4
  %88 = load ptr, ptr %13, align 8
  %89 = load i32, ptr @hf_tfp_r, align 4
  %90 = load ptr, ptr %4, align 8
  %91 = load i32, ptr %8, align 4
  %92 = call ptr @proto_tree_add_bits_item(ptr noundef %88, i32 noundef %89, ptr noundef %90, i32 noundef %91, i32 noundef 1, i32 noundef -2147483648)
  %93 = load i32, ptr %8, align 4
  %94 = add i32 %93, 1
  store i32 %94, ptr %8, align 4
  %95 = load ptr, ptr %13, align 8
  %96 = load i32, ptr @hf_tfp_a, align 4
  %97 = load ptr, ptr %4, align 8
  %98 = load i32, ptr %8, align 4
  %99 = call ptr @proto_tree_add_bits_item(ptr noundef %95, i32 noundef %96, ptr noundef %97, i32 noundef %98, i32 noundef 1, i32 noundef -2147483648)
  %100 = load i32, ptr %8, align 4
  %101 = add i32 %100, 1
  store i32 %101, ptr %8, align 4
  %102 = load ptr, ptr %13, align 8
  %103 = load i32, ptr @hf_tfp_oo, align 4
  %104 = load ptr, ptr %4, align 8
  %105 = load i32, ptr %8, align 4
  %106 = call ptr @proto_tree_add_bits_item(ptr noundef %102, i32 noundef %103, ptr noundef %104, i32 noundef %105, i32 noundef 2, i32 noundef -2147483648)
  %107 = load i32, ptr %8, align 4
  %108 = add i32 %107, 2
  store i32 %108, ptr %8, align 4
  %109 = load ptr, ptr %13, align 8
  %110 = load i32, ptr @hf_tfp_e, align 4
  %111 = load ptr, ptr %4, align 8
  %112 = load i32, ptr %8, align 4
  %113 = call ptr @proto_tree_add_bits_item(ptr noundef %109, i32 noundef %110, ptr noundef %111, i32 noundef %112, i32 noundef 2, i32 noundef -2147483648)
  %114 = load i32, ptr %8, align 4
  %115 = add i32 %114, 2
  store i32 %115, ptr %8, align 4
  %116 = load ptr, ptr %13, align 8
  %117 = load i32, ptr @hf_tfp_future_use, align 4
  %118 = load ptr, ptr %4, align 8
  %119 = load i32, ptr %8, align 4
  %120 = call ptr @proto_tree_add_bits_item(ptr noundef %116, i32 noundef %117, ptr noundef %118, i32 noundef %119, i32 noundef 6, i32 noundef -2147483648)
  %121 = load ptr, ptr %4, align 8
  %122 = call i32 @tvb_reported_length(ptr noundef %121)
  %123 = icmp ugt i32 %122, 8
  br i1 %123, label %124, label %132

124:                                              ; preds = %37
  %125 = load i32, ptr %7, align 4
  %126 = add i32 %125, 2
  store i32 %126, ptr %7, align 4
  %127 = load ptr, ptr %13, align 8
  %128 = load i32, ptr @hf_tfp_payload, align 4
  %129 = load ptr, ptr %4, align 8
  %130 = load i32, ptr %7, align 4
  %131 = call ptr @proto_tree_add_item(ptr noundef %127, i32 noundef %128, ptr noundef %129, i32 noundef %130, i32 noundef -1, i32 noundef 0)
  br label %132

132:                                              ; preds = %124, %37
  call void @llvm.lifetime.end.p0(i64 8, ptr %14) #6
  call void @llvm.lifetime.end.p0(i64 8, ptr %13) #6
  br label %133

133:                                              ; preds = %132, %3
  call void @llvm.lifetime.end.p0(i64 13, ptr %12) #6
  call void @llvm.lifetime.end.p0(i64 1, ptr %11) #6
  call void @llvm.lifetime.end.p0(i64 1, ptr %10) #6
  call void @llvm.lifetime.end.p0(i64 1, ptr %9) #6
  call void @llvm.lifetime.end.p0(i64 4, ptr %8) #6
  call void @llvm.lifetime.end.p0(i64 4, ptr %7) #6
  ret void
}