; Function Attrs: null_pointer_is_valid sspstrong uwtable
define internal fastcc void @dissect_tfp_common(ptr noundef %0, ptr noundef readonly captures(none) %1, ptr noundef %2) unnamed_addr #0 {
  %4 = alloca [13 x i8], align 1
  %5 = alloca [13 x i8], align 1
  call void @llvm.lifetime.start.p0(i64 13, ptr nonnull %5) #5
  %6 = tail call i32 @tvb_get_letohl(ptr noundef %0, i32 noundef 0)
  call void @llvm.lifetime.start.p0(i64 13, ptr nonnull %4) #5
  call void @llvm.memset.p0.i64(ptr noundef nonnull align 1 dereferenceable(13) %4, i8 0, i64 13, i1 false)
  %7 = icmp ugt i32 %6, 57
  br i1 %7, label %.lr.ph.i, label %._crit_edge.thread.i

._crit_edge.thread.i:                             ; preds = %3
  %8 = zext nneg i32 %6 to i64
  %9 = getelementptr [59 x i8], ptr @BASE58_ALPHABET, i64 0, i64 %8
  %10 = load i8, ptr %9, align 1
  store i8 %10, ptr %4, align 1
  br label %.lr.ph26.preheader.i

.lr.ph.i:                                         ; preds = %3, %.lr.ph.i
  %.01821.i = phi i32 [ %18, %.lr.ph.i ], [ 0, %3 ]
  %.01920.i = phi i32 [ %17, %.lr.ph.i ], [ %6, %3 ]
  %11 = urem i32 %.01920.i, 58
  %12 = zext nneg i32 %11 to i64
  %13 = getelementptr [59 x i8], ptr @BASE58_ALPHABET, i64 0, i64 %12
  %14 = load i8, ptr %13, align 1
  %15 = sext i32 %.01821.i to i64
  %16 = getelementptr [13 x i8], ptr %4, i64 0, i64 %15
  store i8 %14, ptr %16, align 1
  %17 = udiv i32 %.01920.i, 58
  %18 = add i32 %.01821.i, 1
  %19 = icmp ugt i32 %.01920.i, 3363
  br i1 %19, label %.lr.ph.i, label %._crit_edge.i, !llvm.loop !6

._crit_edge.i:                                    ; preds = %.lr.ph.i
  %20 = zext nneg i32 %17 to i64
  %21 = getelementptr [59 x i8], ptr @BASE58_ALPHABET, i64 0, i64 %20
  %22 = load i8, ptr %21, align 1
  %23 = sext i32 %18 to i64
  %24 = getelementptr [13 x i8], ptr %4, i64 0, i64 %23
  store i8 %22, ptr %24, align 1
  %.not23.i = icmp slt i32 %18, 0
  br i1 %.not23.i, label %.lr.ph29.preheader.i, label %.lr.ph26.preheader.i

.lr.ph26.preheader.i:                             ; preds = %._crit_edge.i, %._crit_edge.thread.i
  %.018.lcssa40.i = phi i32 [ 0, %._crit_edge.thread.i ], [ %18, %._crit_edge.i ]
  %25 = add nuw i32 %.018.lcssa40.i, 1
  %smax.i = tail call i32 @llvm.smax.i32(i32 %25, i32 1)
  %wide.trip.count.i = zext nneg i32 %smax.i to i64
  br label %.lr.ph26.i

.preheader.i:                                     ; preds = %.lr.ph26.i
  %26 = icmp slt i32 %25, 13
  br i1 %26, label %.lr.ph29.preheader.i, label %base58_encode.exit

.lr.ph29.preheader.i:                             ; preds = %._crit_edge.i, %.preheader.i
  %.0.lcssa42.i = phi i32 [ %smax.i, %.preheader.i ], [ 0, %._crit_edge.i ]
  %27 = zext nneg i32 %.0.lcssa42.i to i64
  %scevgep.i = getelementptr i8, ptr %5, i64 %27
  %narrow.i = sub nuw nsw i32 13, %.0.lcssa42.i
  %28 = zext nneg i32 %narrow.i to i64
  call void @llvm.memset.p0.i64(ptr align 1 %scevgep.i, i8 0, i64 %28, i1 false)
  br label %base58_encode.exit

.lr.ph26.i:                                       ; preds = %.lr.ph26.i, %.lr.ph26.preheader.i
  %indvars.iv.i = phi i64 [ 0, %.lr.ph26.preheader.i ], [ %indvars.iv.next.i, %.lr.ph26.i ]
  %29 = trunc nuw nsw i64 %indvars.iv.i to i32
  %30 = sub i32 %.018.lcssa40.i, %29
  %31 = sext i32 %30 to i64
  %32 = getelementptr [13 x i8], ptr %4, i64 0, i64 %31
  %33 = load i8, ptr %32, align 1
  %34 = getelementptr i8, ptr %5, i64 %indvars.iv.i
  store i8 %33, ptr %34, align 1
  %indvars.iv.next.i = add nuw nsw i64 %indvars.iv.i, 1
  %exitcond.i = icmp eq i64 %indvars.iv.next.i, %wide.trip.count.i
  br i1 %exitcond.i, label %.preheader.i, label %.lr.ph26.i, !llvm.loop !8

base58_encode.exit:                               ; preds = %.preheader.i, %.lr.ph29.preheader.i
  call void @llvm.lifetime.end.p0(i64 13, ptr nonnull %4) #5
  %35 = tail call zeroext i8 @tvb_get_uint8(ptr noundef %0, i32 noundef 4)
  %36 = tail call zeroext i8 @tvb_get_uint8(ptr noundef %0, i32 noundef 5)
  %37 = tail call zeroext i8 @tvb_get_bits8(ptr noundef %0, i32 noundef 48, i32 noundef 4)
  %38 = getelementptr inbounds nuw i8, ptr %1, i64 8
  %39 = load ptr, ptr %38, align 8
  %40 = zext i8 %35 to i32
  %41 = zext i8 %36 to i32
  %42 = zext i8 %37 to i32
  call void (ptr, i32, ptr, ...) @col_add_fstr(ptr noundef %39, i32 noundef 25, ptr noundef nonnull @.str.30, ptr noundef nonnull %5, i32 noundef %40, i32 noundef %41, i32 noundef %42)
  %.not = icmp eq ptr %2, null
  br i1 %.not, label %80, label %43

43:                                               ; preds = %base58_encode.exit
  %44 = load i32, ptr @proto_tfp, align 4
  %45 = call ptr (ptr, i32, ptr, i32, i32, ptr, ...) @proto_tree_add_protocol_format(ptr noundef nonnull %2, i32 noundef %44, ptr noundef %0, i32 noundef 0, i32 noundef -1, ptr noundef nonnull @.str.31, ptr noundef nonnull %5, i32 noundef %40, i32 noundef %41, i32 noundef %42)
  %46 = load i32, ptr @ett_tfp, align 4
  %47 = call ptr @proto_item_add_subtree(ptr noundef %45, i32 noundef %46)
  %48 = load i32, ptr @hf_tfp_uid, align 4
  %49 = call ptr (ptr, i32, ptr, i32, i32, ptr, ptr, ...) @proto_tree_add_string_format_value(ptr noundef %47, i32 noundef %48, ptr noundef %0, i32 noundef 0, i32 noundef 4, ptr noundef nonnull %5, ptr noundef nonnull @.str.32, ptr noundef nonnull %5)
  %.not.i = icmp eq ptr %49, null
  br i1 %.not.i, label %proto_item_set_generated.exit, label %50

50:                                               ; preds = %43
  %51 = getelementptr inbounds nuw i8, ptr %49, i64 40
  %52 = load ptr, ptr %51, align 8
  %.not5.i = icmp eq ptr %52, null
  br i1 %.not5.i, label %proto_item_set_generated.exit, label %53

53:                                               ; preds = %50
  %54 = getelementptr inbounds nuw i8, ptr %52, i64 28
  %55 = load i32, ptr %54, align 4
  %56 = or i32 %55, 2
  store i32 %56, ptr %54, align 4
  br label %proto_item_set_generated.exit

proto_item_set_generated.exit:                    ; preds = %43, %50, %53
  %57 = load i32, ptr @hf_tfp_uid_numeric, align 4
  %58 = call ptr @proto_tree_add_item(ptr noundef %47, i32 noundef %57, ptr noundef %0, i32 noundef 0, i32 noundef 4, i32 noundef -2147483648)
  %59 = load i32, ptr @hf_tfp_len, align 4
  %60 = call ptr @proto_tree_add_item(ptr noundef %47, i32 noundef %59, ptr noundef %0, i32 noundef 4, i32 noundef 1, i32 noundef -2147483648)
  %61 = load i32, ptr @hf_tfp_fid, align 4
  %62 = call ptr @proto_tree_add_item(ptr noundef %47, i32 noundef %61, ptr noundef %0, i32 noundef 5, i32 noundef 1, i32 noundef -2147483648)
  %63 = load i32, ptr @hf_tfp_seq, align 4
  %64 = call ptr @proto_tree_add_bits_item(ptr noundef %47, i32 noundef %63, ptr noundef %0, i32 noundef 48, i32 noundef 4, i32 noundef -2147483648)
  %65 = load i32, ptr @hf_tfp_r, align 4
  %66 = call ptr @proto_tree_add_bits_item(ptr noundef %47, i32 noundef %65, ptr noundef %0, i32 noundef 52, i32 noundef 1, i32 noundef -2147483648)
  %67 = load i32, ptr @hf_tfp_a, align 4
  %68 = call ptr @proto_tree_add_bits_item(ptr noundef %47, i32 noundef %67, ptr noundef %0, i32 noundef 53, i32 noundef 1, i32 noundef -2147483648)
  %69 = load i32, ptr @hf_tfp_oo, align 4
  %70 = call ptr @proto_tree_add_bits_item(ptr noundef %47, i32 noundef %69, ptr noundef %0, i32 noundef 54, i32 noundef 2, i32 noundef -2147483648)
  %71 = load i32, ptr @hf_tfp_e, align 4
  %72 = call ptr @proto_tree_add_bits_item(ptr noundef %47, i32 noundef %71, ptr noundef %0, i32 noundef 56, i32 noundef 2, i32 noundef -2147483648)
  %73 = load i32, ptr @hf_tfp_future_use, align 4
  %74 = call ptr @proto_tree_add_bits_item(ptr noundef %47, i32 noundef %73, ptr noundef %0, i32 noundef 58, i32 noundef 6, i32 noundef -2147483648)
  %75 = call i32 @tvb_reported_length(ptr noundef %0)
  %76 = icmp ugt i32 %75, 8
  br i1 %76, label %77, label %80

77:                                               ; preds = %proto_item_set_generated.exit
  %78 = load i32, ptr @hf_tfp_payload, align 4
  %79 = call ptr @proto_tree_add_item(ptr noundef %47, i32 noundef %78, ptr noundef %0, i32 noundef 8, i32 noundef -1, i32 noundef 0)
  br label %80

80:                                               ; preds = %proto_item_set_generated.exit, %77, %base58_encode.exit
  call void @llvm.lifetime.end.p0(i64 13, ptr nonnull %5) #5
  ret void
}